; Function Attrs: mustprogress sspstrong uwtable
define internal noundef i32 @_ZN3tbb6detail2r1L29dummy_get_default_concurrencyEiii(i32 %0, i32 %1, i32 %2) #1 personality ptr @__gxx_personality_v0 {
  %4 = load atomic i8, ptr @_ZGVZN3tbb6detail2r18governor19default_num_threadsEvE11num_threads acquire, align 8
  %5 = icmp eq i8 %4, 0
  br i1 %5, label %6, label %_ZN3tbb6detail2r18governor19default_num_threadsEv.exit, !prof !101

6:                                                ; preds = %3
  %7 = tail call i32 @__cxa_guard_acquire(ptr nonnull @_ZGVZN3tbb6detail2r18governor19default_num_threadsEvE11num_threads) #8
  %.not.i = icmp eq i32 %7, 0
  br i1 %.not.i, label %_ZN3tbb6detail2r18governor19default_num_threadsEv.exit, label %8

8:                                                ; preds = %6
  %9 = invoke noundef i32 @_ZN3tbb6detail2r122AvailableHwConcurrencyEv()
          to label %10 unwind label %11

10:                                               ; preds = %8
  store i32 %9, ptr @_ZZN3tbb6detail2r18governor19default_num_threadsEvE11num_threads, align 4, !tbaa !102
  tail call void @__cxa_guard_release(ptr nonnull @_ZGVZN3tbb6detail2r18governor19default_num_threadsEvE11num_threads) #8
  br label %_ZN3tbb6detail2r18governor19default_num_threadsEv.exit

11:                                               ; preds = %8
  %12 = landingpad { ptr, i32 }
          cleanup
  tail call void @__cxa_guard_abort(ptr nonnull @_ZGVZN3tbb6detail2r18governor19default_num_threadsEvE11num_threads) #8
  resume { ptr, i32 } %12

_ZN3tbb6detail2r18governor19default_num_threadsEv.exit: ; preds = %3, %6, %10
  %13 = load i32, ptr @_ZZN3tbb6detail2r18governor19default_num_threadsEvE11num_threads, align 4, !tbaa !102
  ret i32 %13
}